target datalayout = "e-m:e-p270:32:32-p271:32:32-p272:64:64-i64:64-i128:128-f80:128-n8:16:32:64-S128"
target triple = "x86_64-pc-linux-gnu"

%struct.Parser = type { ptr, ptr, i32, i32, i32, ptr, ptr, ptr, i32, i32, ptr, i32, ptr, i32, i32, i32, i32, i32, %struct.growable_comment_array, ptr, i32, i32, i32 }
%struct.growable_comment_array = type { ptr, i64, i64 }
%struct._memo = type { i32, ptr, i32, ptr }
%struct.Token = type { i32, ptr, i32, i32, i32, i32, i32, ptr, ptr }

; Function Attrs: nounwind uwtable
define hidden i32 @_PyPegen_insert_memo(ptr noundef %0, i32 noundef %1, i32 noundef %2, ptr noundef %3) #0 {
  %5 = alloca i32, align 4
  %6 = alloca ptr, align 8
  %7 = alloca i32, align 4
  %8 = alloca i32, align 4
  %9 = alloca ptr, align 8
  %10 = alloca ptr, align 8
  %11 = alloca i32, align 4
  store ptr %0, ptr %6, align 8, !tbaa !4
  store i32 %1, ptr %7, align 4, !tbaa !18
  store i32 %2, ptr %8, align 4, !tbaa !18
  store ptr %3, ptr %9, align 8, !tbaa !4
  call void @llvm.lifetime.start.p0(i64 8, ptr %10) #10
  %12 = load ptr, ptr %6, align 8, !tbaa !4
  %13 = getelementptr inbounds nuw %struct.Parser, ptr %12, i32 0, i32 5
  %14 = load ptr, ptr %13, align 8, !tbaa !32
  %15 = call ptr @_PyArena_Malloc(ptr noundef %14, i64 noundef 32)
  store ptr %15, ptr %10, align 8, !tbaa !33
  %16 = load ptr, ptr %10, align 8, !tbaa !33
  %17 = icmp eq ptr %16, null
  br i1 %17, label %18, label %19

18:                                               ; preds = %4
  store i32 -1, ptr %5, align 4
  store i32 1, ptr %11, align 4
  br label %51

19:                                               ; preds = %4
  %20 = load i32, ptr %8, align 4, !tbaa !18
  %21 = load ptr, ptr %10, align 8, !tbaa !33
  %22 = getelementptr inbounds nuw %struct._memo, ptr %21, i32 0, i32 0
  store i32 %20, ptr %22, align 8, !tbaa !35
  %23 = load ptr, ptr %9, align 8, !tbaa !4
  %24 = load ptr, ptr %10, align 8, !tbaa !33
  %25 = getelementptr inbounds nuw %struct._memo, ptr %24, i32 0, i32 1
  store ptr %23, ptr %25, align 8, !tbaa !37
  %26 = load ptr, ptr %6, align 8, !tbaa !4
  %27 = getelementptr inbounds nuw %struct.Parser, ptr %26, i32 0, i32 2
  %28 = load i32, ptr %27, align 8, !tbaa !38
  %29 = load ptr, ptr %10, align 8, !tbaa !33
  %30 = getelementptr inbounds nuw %struct._memo, ptr %29, i32 0, i32 2
  store i32 %28, ptr %30, align 8, !tbaa !39
  %31 = load ptr, ptr %6, align 8, !tbaa !4
  %32 = getelementptr inbounds nuw %struct.Parser, ptr %31, i32 0, i32 1
  %33 = load ptr, ptr %32, align 8, !tbaa !40
  %34 = load i32, ptr %7, align 4, !tbaa !18
  %35 = sext i32 %34 to i64
  %36 = getelementptr ptr, ptr %33, i64 %35
  %37 = load ptr, ptr %36, align 8, !tbaa !4
  %38 = getelementptr inbounds nuw %struct.Token, ptr %37, i32 0, i32 7
  %39 = load ptr, ptr %38, align 8, !tbaa !41
  %40 = load ptr, ptr %10, align 8, !tbaa !33
  %41 = getelementptr inbounds nuw %struct._memo, ptr %40, i32 0, i32 3
  store ptr %39, ptr %41, align 8, !tbaa !43
  %42 = load ptr, ptr %10, align 8, !tbaa !33
  %43 = load ptr, ptr %6, align 8, !tbaa !4
  %44 = getelementptr inbounds nuw %struct.Parser, ptr %43, i32 0, i32 1
  %45 = load ptr, ptr %44, align 8, !tbaa !40
  %46 = load i32, ptr %7, align 4, !tbaa !18
  %47 = sext i32 %46 to i64
  %48 = getelementptr ptr, ptr %45, i64 %47
  %49 = load ptr, ptr %48, align 8, !tbaa !4
  %50 = getelementptr inbounds nuw %struct.Token, ptr %49, i32 0, i32 7
  store ptr %42, ptr %50, align 8, !tbaa !41
  store i32 0, ptr %5, align 4
  store i32 1, ptr %11, align 4
  br label %51

51:                                               ; preds = %19, %18
  call void @llvm.lifetime.end.p0(i64 8, ptr %10) #10
  %52 = load i32, ptr %5, align 4
  ret i32 %52
}

; Function Attrs: nounwind uwtable
define hidden i32 @_PyPegen_update_memo(ptr noundef %0, i32 noundef %1, i32 noundef %2, ptr noundef %3) #0 {
  %5 = alloca i32, align 4
  %6 = alloca ptr, align 8
  %7 = alloca i32, align 4
  %8 = alloca i32, align 4
  %9 = alloca ptr, align 8
  %10 = alloca ptr, align 8
  %11 = alloca i32, align 4
  store ptr %0, ptr %6, align 8, !tbaa !4
  store i32 %1, ptr %7, align 4, !tbaa !18
  store i32 %2, ptr %8, align 4, !tbaa !18
  store ptr %3, ptr %9, align 8, !tbaa !4
  call void @llvm.lifetime.start.p0(i64 8, ptr %10) #10
  %12 = load ptr, ptr %6, align 8, !tbaa !4
  %13 = getelementptr inbounds nuw %struct.Parser, ptr %12, i32 0, i32 1
  %14 = load ptr, ptr %13, align 8, !tbaa !40
  %15 = load i32, ptr %7, align 4, !tbaa !18
  %16 = sext i32 %15 to i64
  %17 = getelementptr ptr, ptr %14, i64 %16
  %18 = load ptr, ptr %17, align 8, !tbaa !4
  %19 = getelementptr inbounds nuw %struct.Token, ptr %18, i32 0, i32 7
  %20 = load ptr, ptr %19, align 8, !tbaa !41
  store ptr %20, ptr %10, align 8, !tbaa !33
  br label %21

21:                                               ; preds = %41, %4
  %22 = load ptr, ptr %10, align 8, !tbaa !33
  %23 = icmp ne ptr %22, null
  br i1 %23, label %25, label %24

24:                                               ; preds = %21
  store i32 2, ptr %11, align 4
  br label %45

25:                                               ; preds = %21
  %26 = load ptr, ptr %10, align 8, !tbaa !33
  %27 = getelementptr inbounds nuw %struct._memo, ptr %26, i32 0, i32 0
  %28 = load i32, ptr %27, align 8, !tbaa !35
  %29 = load i32, ptr %8, align 4, !tbaa !18
  %30 = icmp eq i32 %28, %29
  br i1 %30, label %31, label %40

31:                                               ; preds = %25
  %32 = load ptr, ptr %9, align 8, !tbaa !4
  %33 = load ptr, ptr %10, align 8, !tbaa !33
  %34 = getelementptr inbounds nuw %struct._memo, ptr %33, i32 0, i32 1
  store ptr %32, ptr %34, align 8, !tbaa !37
  %35 = load ptr, ptr %6, align 8, !tbaa !4
  %36 = getelementptr inbounds nuw %struct.Parser, ptr %35, i32 0, i32 2
  %37 = load i32, ptr %36, align 8, !tbaa !38
  %38 = load ptr, ptr %10, align 8, !tbaa !33
  %39 = getelementptr inbounds nuw %struct._memo, ptr %38, i32 0, i32 2
  store i32 %37, ptr %39, align 8, !tbaa !39
  store i32 0, ptr %5, align 4
  store i32 1, ptr %11, align 4
  br label %45

40:                                               ; preds = %25
  br label %41

41:                                               ; preds = %40
  %42 = load ptr, ptr %10, align 8, !tbaa !33
  %43 = getelementptr inbounds nuw %struct._memo, ptr %42, i32 0, i32 3
  %44 = load ptr, ptr %43, align 8, !tbaa !43
  store ptr %44, ptr %10, align 8, !tbaa !33
  br label %21, !llvm.loop !44

45:                                               ; preds = %31, %24
  call void @llvm.lifetime.end.p0(i64 8, ptr %10) #10
  %46 = load i32, ptr %11, align 4
  switch i32 %46, label %55 [
    i32 2, label %47
    i32 1, label %53
  ]

47:                                               ; preds = %45
  %48 = load ptr, ptr %6, align 8, !tbaa !4
  %49 = load i32, ptr %7, align 4, !tbaa !18
  %50 = load i32, ptr %8, align 4, !tbaa !18
  %51 = load ptr, ptr %9, align 8, !tbaa !4
  %52 = call i32 @_PyPegen_insert_memo(ptr noundef %48, i32 noundef %49, i32 noundef %50, ptr noundef %51)
  store i32 %52, ptr %5, align 4
  br label %53

53:                                               ; preds = %47, %45
  %54 = load i32, ptr %5, align 4
  ret i32 %54

55:                                               ; preds = %45
  unreachable
}