; Function Attrs: nounwind uwtable
define hidden range(i32 -1, 1) i32 @_PyPegen_update_memo(ptr noundef readonly captures(none) %0, i32 noundef %1, i32 noundef %2, ptr noundef %3) local_unnamed_addr #1 {
  %5 = getelementptr inbounds nuw i8, ptr %0, i64 8
  %6 = load ptr, ptr %5, align 8, !tbaa !35
  %7 = sext i32 %1 to i64
  %8 = getelementptr ptr, ptr %6, i64 %7
  %9 = load ptr, ptr %8, align 8, !tbaa !36
  %10 = getelementptr inbounds nuw i8, ptr %9, i64 40
  %.01521 = load ptr, ptr %10, align 8, !tbaa !40
  %.not22 = icmp eq ptr %.01521, null
  br i1 %.not22, label %._crit_edge, label %.lr.ph

.lr.ph:                                           ; preds = %4, %13
  %.01523 = phi ptr [ %.015, %13 ], [ %.01521, %4 ]
  %11 = load i32, ptr %.01523, align 8, !tbaa !29
  %12 = icmp eq i32 %11, %2
  br i1 %12, label %15, label %13

13:                                               ; preds = %.lr.ph
  %14 = getelementptr inbounds nuw i8, ptr %.01523, i64 24
  %.015 = load ptr, ptr %14, align 8, !tbaa !40
  %.not = icmp eq ptr %.015, null
  br i1 %.not, label %._crit_edge, label %.lr.ph, !llvm.loop !41

15:                                               ; preds = %.lr.ph
  %16 = getelementptr inbounds nuw i8, ptr %.01523, i64 8
  store ptr %3, ptr %16, align 8, !tbaa !32
  %17 = getelementptr inbounds nuw i8, ptr %0, i64 16
  %18 = load i32, ptr %17, align 8, !tbaa !33
  %19 = getelementptr inbounds nuw i8, ptr %.01523, i64 16
  store i32 %18, ptr %19, align 8, !tbaa !34
  br label %_PyPegen_insert_memo.exit

._crit_edge:                                      ; preds = %13, %4
  %20 = getelementptr inbounds nuw i8, ptr %0, i64 32
  %21 = load ptr, ptr %20, align 8, !tbaa !28
  %22 = tail call ptr @_PyArena_Malloc(ptr noundef %21, i64 noundef 32) #13
  %23 = icmp eq ptr %22, null
  br i1 %23, label %_PyPegen_insert_memo.exit, label %24

24:                                               ; preds = %._crit_edge
  store i32 %2, ptr %22, align 8, !tbaa !29
  %25 = getelementptr inbounds nuw i8, ptr %22, i64 8
  store ptr %3, ptr %25, align 8, !tbaa !32
  %26 = getelementptr inbounds nuw i8, ptr %0, i64 16
  %27 = load i32, ptr %26, align 8, !tbaa !33
  %28 = getelementptr inbounds nuw i8, ptr %22, i64 16
  store i32 %27, ptr %28, align 8, !tbaa !34
  %29 = load ptr, ptr %5, align 8, !tbaa !35
  %30 = getelementptr ptr, ptr %29, i64 %7
  %31 = load ptr, ptr %30, align 8, !tbaa !36
  %32 = getelementptr inbounds nuw i8, ptr %31, i64 40
  %33 = load ptr, ptr %32, align 8, !tbaa !37
  %34 = getelementptr inbounds nuw i8, ptr %22, i64 24
  store ptr %33, ptr %34, align 8, !tbaa !39
  %35 = load ptr, ptr %30, align 8, !tbaa !36
  %36 = getelementptr inbounds nuw i8, ptr %35, i64 40
  store ptr %22, ptr %36, align 8, !tbaa !37
  br label %_PyPegen_insert_memo.exit

_PyPegen_insert_memo.exit:                        ; preds = %24, %._crit_edge, %15
  %.1 = phi i32 [ 0, %15 ], [ 0, %24 ], [ -1, %._crit_edge ]
  ret i32 %.1
}